target datalayout = "e-m:e-p270:32:32-p271:32:32-p272:64:64-i64:64-i128:128-f80:128-n8:16:32:64-S128"
target triple = "x86_64-unknown-linux-gnu"

%struct.KVMRouteChange = type { ptr, i32 }
%struct.MemoryRegion = type { %struct.Object, i8, i8, i8, i8, i8, i8, i8, i8, i8, i8, ptr, ptr, ptr, ptr, ptr, ptr, i32, i128, i64, ptr, i64, i8, i8, i8, i8, i8, ptr, i64, i32, %union.anon, %union.anon.0, %union.anon.1, ptr, i32, ptr, ptr, i8 }
%struct.Object = type { ptr, ptr, ptr, i32, ptr }
%union.anon = type { %struct.QTailQLink }
%struct.QTailQLink = type { ptr, ptr }
%union.anon.0 = type { %struct.QTailQLink }
%union.anon.1 = type { %struct.QTailQLink }
%struct.VFIOPCIDevice = type { %struct.PCIDevice, %struct.VFIODevice, %struct.VFIOINTx, i32, ptr, i64, i32, i64, ptr, i32, ptr, ptr, i32, i32, [6 x %struct.VFIOBAR], ptr, ptr, %struct.PCIHostDeviceAddress, %struct.QemuUUID, %struct.EventNotifier, %struct.EventNotifier, ptr, i32, i32, i32, i32, i32, i32, i32, i32, i32, i32, i32, i8, i8, i8, i8, i8, i8, i8, i8, i8, i8, i8, i8, i8, i8, i32, i8, i8, ptr, %struct.Notifier }
%struct.PCIDevice = type { %struct.DeviceState, i8, i8, ptr, ptr, ptr, ptr, ptr, i32, %struct.PCIReqIDCache, [64 x i8], [7 x %struct.PCIIORegion], %struct.AddressSpace, %struct.MemoryRegion, %struct.MemoryRegion, ptr, ptr, [3 x ptr], i8, i8, i32, i8, i32, ptr, ptr, ptr, ptr, ptr, ptr, %struct.MemoryRegion, %struct.MemoryRegion, %struct.MemoryRegion, ptr, i8, i32, i8, %struct.PCIExpressDevice, ptr, ptr, i32, i8, %struct.MemoryRegion, i32, ptr, ptr, ptr, ptr, ptr, i32 }
%struct.DeviceState = type { %struct.Object, ptr, ptr, i8, i8, i64, ptr, i32, i8, ptr, %struct.NamedGPIOListHead, %struct.NamedClockListHead, %struct.BusStateHead, i32, i32, i32, %struct.ResettableState, ptr, %struct.MemReentrancyGuard }
%struct.NamedGPIOListHead = type { ptr }
%struct.NamedClockListHead = type { ptr }
%struct.BusStateHead = type { ptr }
%struct.ResettableState = type { i32, i8, i8 }
%struct.MemReentrancyGuard = type { i8 }
%struct.PCIReqIDCache = type { ptr, i32 }
%struct.PCIIORegion = type { i64, i64, i8, ptr, ptr }
%struct.AddressSpace = type { %struct.rcu_head, ptr, ptr, ptr, i32, i32, ptr, %union.anon.4, %union.anon.5 }
%struct.rcu_head = type { ptr, ptr }
%union.anon.4 = type { %struct.QTailQLink }
%union.anon.5 = type { %struct.QTailQLink }
%struct.PCIExpressDevice = type { i8, i8, i8, i16, %struct.PCIEAERLog, i16, i16, i16, %struct.PCIESriovPF, %struct.PCIESriovVF }
%struct.PCIEAERLog = type { i16, i16, ptr }
%struct.PCIESriovPF = type { i16, [7 x i8], ptr, ptr }
%struct.PCIESriovVF = type { ptr, i16 }
%struct.VFIODevice = type { %struct.anon.6, %struct.anon.7, %struct.anon.8, ptr, ptr, ptr, ptr, ptr, i32, i32, i8, i8, i8, i8, i32, ptr, i32, i32, i32, ptr, ptr, i32, i8, i8 }
%struct.anon.6 = type { ptr, ptr }
%struct.anon.7 = type { ptr, ptr }
%struct.anon.8 = type { ptr, ptr }
%struct.VFIOINTx = type { i8, i8, i8, %struct.EventNotifier, %struct.EventNotifier, %struct.PCIINTxRoute, i32, ptr }
%struct.PCIINTxRoute = type { i32, i32 }
%struct.VFIOBAR = type { %struct.VFIORegion, ptr, i64, i8, i8, i8, %struct.anon.9 }
%struct.VFIORegion = type { ptr, i64, ptr, i64, i32, i32, ptr, i8 }
%struct.anon.9 = type { ptr }
%struct.PCIHostDeviceAddress = type { i32, i32, i32, i32 }
%struct.QemuUUID = type { %union.anon.10 }
%union.anon.10 = type { %struct.anon.11 }
%struct.anon.11 = type { i32, i16, i16, i8, i8, [6 x i8] }
%struct.EventNotifier = type { i32, i32, i8 }
%struct.Notifier = type { ptr, %struct.anon.12 }
%struct.anon.12 = type { ptr, ptr }
%struct.VFIOMSIVector = type { %struct.EventNotifier, %struct.EventNotifier, ptr, i32, i8 }

@.str.12 = private unnamed_addr constant [22 x i8] c"../qemu/hw/vfio/pci.c\00", align 1
@vfio_route_change = internal global %struct.KVMRouteChange zeroinitializer, align 8
@kvm_state = external global ptr, align 8
@.str.39 = private unnamed_addr constant [28 x i8] c"vdev->defer_kvm_irq_routing\00", align 1
@__PRETTY_FUNCTION__.vfio_commit_kvm_msi_virq_batch = private unnamed_addr constant [53 x i8] c"void vfio_commit_kvm_msi_virq_batch(VFIOPCIDevice *)\00", align 1

; Function Attrs: nounwind sspstrong uwtable
define internal void @vfio_connect_kvm_msi_virq(ptr noundef %vector) #0 {
entry:
  %vector.addr = alloca ptr, align 8
  store ptr %vector, ptr %vector.addr, align 8
  %0 = load ptr, ptr %vector.addr, align 8
  %virq = getelementptr inbounds %struct.VFIOMSIVector, ptr %0, i32 0, i32 3
  %1 = load i32, ptr %virq, align 8
  %cmp = icmp slt i32 %1, 0
  br i1 %cmp, label %if.then, label %if.end

if.then:                                          ; preds = %entry
  br label %return

if.end:                                           ; preds = %entry
  %2 = load ptr, ptr %vector.addr, align 8
  %kvm_interrupt = getelementptr inbounds %struct.VFIOMSIVector, ptr %2, i32 0, i32 1
  %call = call i32 @event_notifier_init(ptr noundef %kvm_interrupt, i32 noundef 0)
  %tobool = icmp ne i32 %call, 0
  br i1 %tobool, label %if.then1, label %if.end2

if.then1:                                         ; preds = %if.end
  br label %fail_notifier

if.end2:                                          ; preds = %if.end
  %3 = load ptr, ptr @kvm_state, align 8
  %4 = load ptr, ptr %vector.addr, align 8
  %kvm_interrupt3 = getelementptr inbounds %struct.VFIOMSIVector, ptr %4, i32 0, i32 1
  %5 = load ptr, ptr %vector.addr, align 8
  %virq4 = getelementptr inbounds %struct.VFIOMSIVector, ptr %5, i32 0, i32 3
  %6 = load i32, ptr %virq4, align 8
  %call5 = call i32 @kvm_irqchip_add_irqfd_notifier_gsi(ptr noundef %3, ptr noundef %kvm_interrupt3, ptr noundef null, i32 noundef %6)
  %cmp6 = icmp slt i32 %call5, 0
  br i1 %cmp6, label %if.then7, label %if.end8

if.then7:                                         ; preds = %if.end2
  br label %fail_kvm

if.end8:                                          ; preds = %if.end2
  br label %return

fail_kvm:                                         ; preds = %if.then7
  %7 = load ptr, ptr %vector.addr, align 8
  %kvm_interrupt9 = getelementptr inbounds %struct.VFIOMSIVector, ptr %7, i32 0, i32 1
  call void @event_notifier_cleanup(ptr noundef %kvm_interrupt9)
  br label %fail_notifier

fail_notifier:                                    ; preds = %fail_kvm, %if.then1
  %8 = load ptr, ptr @kvm_state, align 8
  %9 = load ptr, ptr %vector.addr, align 8
  %virq10 = getelementptr inbounds %struct.VFIOMSIVector, ptr %9, i32 0, i32 3
  %10 = load i32, ptr %virq10, align 8
  call void @kvm_irqchip_release_virq(ptr noundef %8, i32 noundef %10)
  %11 = load ptr, ptr %vector.addr, align 8
  %virq11 = getelementptr inbounds %struct.VFIOMSIVector, ptr %11, i32 0, i32 3
  store i32 -1, ptr %virq11, align 8
  br label %return

return:                                           ; preds = %fail_notifier, %if.end8, %if.then
  ret void
}

; Function Attrs: nounwind sspstrong uwtable
define internal void @kvm_irqchip_commit_route_changes(ptr noundef %c) #0 {
entry:
  %c.addr = alloca ptr, align 8
  store ptr %c, ptr %c.addr, align 8
  %0 = load ptr, ptr %c.addr, align 8
  %changes = getelementptr inbounds %struct.KVMRouteChange, ptr %0, i32 0, i32 1
  %1 = load i32, ptr %changes, align 8
  %tobool = icmp ne i32 %1, 0
  br i1 %tobool, label %if.then, label %if.end

if.then:                                          ; preds = %entry
  %2 = load ptr, ptr %c.addr, align 8
  %s = getelementptr inbounds %struct.KVMRouteChange, ptr %2, i32 0, i32 0
  %3 = load ptr, ptr %s, align 8
  call void @kvm_irqchip_commit_routes(ptr noundef %3)
  %4 = load ptr, ptr %c.addr, align 8
  %changes1 = getelementptr inbounds %struct.KVMRouteChange, ptr %4, i32 0, i32 1
  store i32 0, ptr %changes1, align 8
  br label %if.end

if.end:                                           ; preds = %if.then, %entry
  ret void
}

; Function Attrs: nounwind sspstrong uwtable
define internal void @vfio_commit_kvm_msi_virq_batch(ptr noundef %vdev) #0 {
entry:
  %vdev.addr = alloca ptr, align 8
  %i = alloca i32, align 4
  store ptr %vdev, ptr %vdev.addr, align 8
  %0 = load ptr, ptr %vdev.addr, align 8
  %defer_kvm_irq_routing = getelementptr inbounds %struct.VFIOPCIDevice, ptr %0, i32 0, i32 48
  %1 = load i8, ptr %defer_kvm_irq_routing, align 8
  %tobool = trunc i8 %1 to i1
  br i1 %tobool, label %if.then, label %if.else

if.then:                                          ; preds = %entry
  br label %if.end

if.else:                                          ; preds = %entry
  call void @__assert_fail(ptr noundef @.str.39, ptr noundef @.str.12, i32 noundef 653, ptr noundef @__PRETTY_FUNCTION__.vfio_commit_kvm_msi_virq_batch) #17
  unreachable

if.end:                                           ; preds = %if.then
  %2 = load ptr, ptr %vdev.addr, align 8
  %defer_kvm_irq_routing1 = getelementptr inbounds %struct.VFIOPCIDevice, ptr %2, i32 0, i32 48
  store i8 0, ptr %defer_kvm_irq_routing1, align 8
  call void @kvm_irqchip_commit_route_changes(ptr noundef @vfio_route_change)
  store i32 0, ptr %i, align 4
  br label %for.cond

for.cond:                                         ; preds = %for.inc, %if.end
  %3 = load i32, ptr %i, align 4
  %4 = load ptr, ptr %vdev.addr, align 8
  %nr_vectors = getelementptr inbounds %struct.VFIOPCIDevice, ptr %4, i32 0, i32 12
  %5 = load i32, ptr %nr_vectors, align 16
  %cmp = icmp slt i32 %3, %5
  br i1 %cmp, label %for.body, label %for.end

for.body:                                         ; preds = %for.cond
  %6 = load ptr, ptr %vdev.addr, align 8
  %msi_vectors = getelementptr inbounds %struct.VFIOPCIDevice, ptr %6, i32 0, i32 10
  %7 = load ptr, ptr %msi_vectors, align 16
  %8 = load i32, ptr %i, align 4
  %idxprom = sext i32 %8 to i64
  %arrayidx = getelementptr %struct.VFIOMSIVector, ptr %7, i64 %idxprom
  call void @vfio_connect_kvm_msi_virq(ptr noundef %arrayidx)
  br label %for.inc

for.inc:                                          ; preds = %for.body
  %9 = load i32, ptr %i, align 4
  %inc = add i32 %9, 1
  store i32 %inc, ptr %i, align 4
  br label %for.cond, !llvm.loop !11

for.end:                                          ; preds = %for.cond
  ret void
}