; Function Attrs: nounwind sspstrong uwtable
define internal fastcc void @vfio_commit_kvm_msi_virq_batch(ptr noundef captures(none) %vdev) unnamed_addr #0 {
entry:
  %defer_kvm_irq_routing = getelementptr inbounds nuw i8, ptr %vdev, i64 3560
  %0 = load i8, ptr %defer_kvm_irq_routing, align 8
  %tobool = trunc i8 %0 to i1
  br i1 %tobool, label %if.end, label %if.else

if.else:                                          ; preds = %entry
  tail call void @__assert_fail(ptr noundef nonnull @.str.39, ptr noundef nonnull @.str.12, i32 noundef 653, ptr noundef nonnull @__PRETTY_FUNCTION__.vfio_commit_kvm_msi_virq_batch) #22
  unreachable

if.end:                                           ; preds = %entry
  store i8 0, ptr %defer_kvm_irq_routing, align 8
  %1 = load i32, ptr getelementptr inbounds nuw (i8, ptr @vfio_route_change, i64 8), align 8
  %tobool.not.i = icmp eq i32 %1, 0
  br i1 %tobool.not.i, label %kvm_irqchip_commit_route_changes.exit, label %if.then.i

if.then.i:                                        ; preds = %if.end
  %2 = load ptr, ptr @vfio_route_change, align 8
  tail call void @kvm_irqchip_commit_routes(ptr noundef %2) #23
  store i32 0, ptr getelementptr inbounds nuw (i8, ptr @vfio_route_change, i64 8), align 8
  br label %kvm_irqchip_commit_route_changes.exit

kvm_irqchip_commit_route_changes.exit:            ; preds = %if.end, %if.then.i
  %nr_vectors = getelementptr inbounds nuw i8, ptr %vdev, i64 2880
  %3 = load i32, ptr %nr_vectors, align 16
  %cmp7 = icmp sgt i32 %3, 0
  br i1 %cmp7, label %for.body.lr.ph, label %for.end

for.body.lr.ph:                                   ; preds = %kvm_irqchip_commit_route_changes.exit
  %msi_vectors = getelementptr inbounds nuw i8, ptr %vdev, i64 2864
  br label %for.body

for.body:                                         ; preds = %for.body.lr.ph, %vfio_connect_kvm_msi_virq.exit
  %indvars.iv = phi i64 [ 0, %for.body.lr.ph ], [ %indvars.iv.next, %vfio_connect_kvm_msi_virq.exit ]
  %4 = load ptr, ptr %msi_vectors, align 16
  %arrayidx = getelementptr %struct.VFIOMSIVector, ptr %4, i64 %indvars.iv
  %virq.i = getelementptr inbounds nuw i8, ptr %arrayidx, i64 32
  %5 = load i32, ptr %virq.i, align 8
  %cmp.i = icmp slt i32 %5, 0
  br i1 %cmp.i, label %vfio_connect_kvm_msi_virq.exit, label %if.end.i

if.end.i:                                         ; preds = %for.body
  %kvm_interrupt.i = getelementptr inbounds nuw i8, ptr %arrayidx, i64 12
  %call.i = tail call i32 @event_notifier_init(ptr noundef nonnull %kvm_interrupt.i, i32 noundef 0) #23
  %tobool.not.i6 = icmp eq i32 %call.i, 0
  br i1 %tobool.not.i6, label %if.end2.i, label %fail_notifier.i

if.end2.i:                                        ; preds = %if.end.i
  %6 = load ptr, ptr @kvm_state, align 8
  %7 = load i32, ptr %virq.i, align 8
  %call5.i = tail call i32 @kvm_irqchip_add_irqfd_notifier_gsi(ptr noundef %6, ptr noundef nonnull %kvm_interrupt.i, ptr noundef null, i32 noundef %7) #23
  %cmp6.i = icmp slt i32 %call5.i, 0
  br i1 %cmp6.i, label %fail_kvm.i, label %vfio_connect_kvm_msi_virq.exit

fail_kvm.i:                                       ; preds = %if.end2.i
  tail call void @event_notifier_cleanup(ptr noundef nonnull %kvm_interrupt.i) #23
  br label %fail_notifier.i

fail_notifier.i:                                  ; preds = %fail_kvm.i, %if.end.i
  %8 = load ptr, ptr @kvm_state, align 8
  %9 = load i32, ptr %virq.i, align 8
  tail call void @kvm_irqchip_release_virq(ptr noundef %8, i32 noundef %9) #23
  store i32 -1, ptr %virq.i, align 8
  br label %vfio_connect_kvm_msi_virq.exit

vfio_connect_kvm_msi_virq.exit:                   ; preds = %for.body, %if.end2.i, %fail_notifier.i
  %indvars.iv.next = add nuw nsw i64 %indvars.iv, 1
  %10 = load i32, ptr %nr_vectors, align 16
  %11 = sext i32 %10 to i64
  %cmp = icmp slt i64 %indvars.iv.next, %11
  br i1 %cmp, label %for.body, label %for.end, !llvm.loop !14

for.end:                                          ; preds = %vfio_connect_kvm_msi_virq.exit, %kvm_irqchip_commit_route_changes.exit
  ret void
}